; Function Attrs: nounwind uwtable
define ptr @l___private_Lean_Elab_Print_0__Lean_Elab_Command_printStructure___lambda__7___boxed(ptr noundef %0, ptr noundef %1, ptr noundef %2, ptr noundef %3, ptr noundef %4, ptr noundef %5, ptr noundef %6, ptr noundef %7, ptr noundef %8, ptr noundef %9, ptr noundef %10, ptr noundef %11, ptr noundef %12, ptr noundef %13, ptr noundef %14, ptr noundef %15) #0 {
  %17 = tail call ptr @l___private_Lean_Elab_Print_0__Lean_Elab_Command_printStructure___lambda__7(ptr noundef %0, ptr noundef %1, ptr noundef %2, ptr noundef %3, ptr noundef %4, ptr noundef %5, ptr noundef %6, ptr noundef %7, ptr noundef %8, ptr noundef %9, ptr noundef %10, ptr noundef %11, ptr noundef %12, ptr noundef %13, ptr noundef %14, ptr noundef %15)
  %18 = ptrtoint ptr %7 to i64
  %19 = and i64 %18, 1
  %.not = icmp eq i64 %19, 0
  br i1 %.not, label %20, label %lean_dec.exit

20:                                               ; preds = %16
  %21 = load i32, ptr %7, align 4, !tbaa !8
  %22 = icmp sgt i32 %21, 1
  br i1 %22, label %23, label %25, !prof !13

23:                                               ; preds = %20
  %24 = add nsw i32 %21, -1
  store i32 %24, ptr %7, align 4, !tbaa !8
  br label %lean_dec.exit

25:                                               ; preds = %20
  %.not.i = icmp eq i32 %21, 0
  br i1 %.not.i, label %lean_dec.exit, label %26

26:                                               ; preds = %25
  tail call void @lean_dec_ref_cold(ptr noundef nonnull %7) #5
  br label %lean_dec.exit

lean_dec.exit:                                    ; preds = %26, %25, %23, %16
  ret ptr %17
}